; Function Attrs: mustprogress nounwind uwtable
define hidden void @_ZN20PSAdaptiveSizePolicy15update_averagesEbmm(ptr nocapture noundef nonnull readonly align 8 dereferenceable(312) %0, i1 noundef zeroext %1, i64 noundef %2, i64 noundef %3) local_unnamed_addr #0 align 2 {
  %5 = select i1 %1, i64 %3, i64 0
  %.sink10 = add i64 %5, %2
  %6 = getelementptr inbounds i8, ptr %0, i64 112
  %7 = load ptr, ptr %6, align 8
  %8 = uitofp i64 %.sink10 to float
  tail call void @_ZN21AdaptivePaddedAverage6sampleEf(ptr noundef nonnull align 4 dereferenceable(32) %7, float noundef %8) #7
  %9 = getelementptr inbounds i8, ptr %0, i64 248
  %10 = load ptr, ptr %9, align 8
  %11 = uitofp i64 %3 to float
  tail call void @_ZN30AdaptivePaddedNoZeroDevAverage6sampleEf(ptr noundef nonnull align 4 dereferenceable(32) %10, float noundef %11) #7
  %12 = load volatile ptr, ptr getelementptr inbounds (i8, ptr @_ZN16LogTagSetMappingILN6LogTag4typeE49ELS1_40ELS1_0ELS1_0ELS1_0ELS1_0EE7_tagsetE, i64 48), align 8
  %.not = icmp eq ptr %12, null
  br i1 %.not, label %15, label %13

13:                                               ; preds = %4
  %14 = select i1 %1, ptr @.str.32, ptr @.str.33
  tail call void (ptr, ...) @_ZN7LogImplILN6LogTag4typeE49ELS1_40ELS1_0ELS1_0ELS1_0ELS1_0EE5writeILN8LogLevel4typeE1EEEvPKcz(ptr noundef nonnull @.str.31, i64 noundef %2, i64 noundef %3, ptr noundef nonnull %14)
  br label %15

15:                                               ; preds = %4, %13
  ret void
}